; Function Attrs: mustprogress uwtable
define internal noundef ptr @"_ZZN4pkpy15__init_builtinsEPNS_2VMEEN5$_1448__invokeES1_PNS_8PyObjectES4_"(ptr noundef %0, ptr nocapture noundef readonly %1, ptr noundef %2) #4 align 2 {
  %4 = getelementptr inbounds i8, ptr %1, i64 24
  %5 = ptrtoint ptr %2 to i64
  %6 = and i64 %5, 3
  %7 = icmp eq i64 %6, 2
  br i1 %7, label %"_ZZN4pkpy15__init_builtinsEPNS_2VMEENK5$_144clES1_PNS_8PyObjectES4_.exit", label %_ZN4pkpy7is_typeEPNS_8PyObjectENS_4TypeE.exit.i

_ZN4pkpy7is_typeEPNS_8PyObjectENS_4TypeE.exit.i:  ; preds = %3
  %8 = getelementptr inbounds i8, ptr %2, i64 10
  %9 = load i16, ptr %8, align 2
  %10 = icmp eq i16 %9, 7
  br i1 %10, label %11, label %"_ZZN4pkpy15__init_builtinsEPNS_2VMEENK5$_144clES1_PNS_8PyObjectES4_.exit"

11:                                               ; preds = %_ZN4pkpy7is_typeEPNS_8PyObjectENS_4TypeE.exit.i
  %12 = getelementptr inbounds i8, ptr %2, i64 24
  %13 = getelementptr inbounds i8, ptr %1, i64 56
  %14 = load i32, ptr %13, align 8
  %15 = getelementptr inbounds i8, ptr %2, i64 56
  %16 = load i32, ptr %15, align 8
  %.not.i = icmp eq i32 %14, %16
  br i1 %.not.i, label %.preheader.i, label %"_ZZN4pkpy15__init_builtinsEPNS_2VMEENK5$_144clES1_PNS_8PyObjectES4_.exit"

.preheader.i:                                     ; preds = %11
  %17 = icmp sgt i32 %14, 0
  br i1 %17, label %.lr.ph.i, label %"_ZZN4pkpy15__init_builtinsEPNS_2VMEENK5$_144clES1_PNS_8PyObjectES4_.exit"

18:                                               ; preds = %.lr.ph.i
  %indvars.iv.next.i = add nuw nsw i64 %indvars.iv.i, 1
  %19 = load i32, ptr %13, align 8
  %20 = sext i32 %19 to i64
  %21 = icmp slt i64 %indvars.iv.next.i, %20
  br i1 %21, label %.lr.ph.i, label %"_ZZN4pkpy15__init_builtinsEPNS_2VMEENK5$_144clES1_PNS_8PyObjectES4_.exit", !llvm.loop !165

.lr.ph.i:                                         ; preds = %.preheader.i, %18
  %indvars.iv.i = phi i64 [ %indvars.iv.next.i, %18 ], [ 0, %.preheader.i ]
  %22 = load ptr, ptr %4, align 8
  %23 = getelementptr inbounds ptr, ptr %22, i64 %indvars.iv.i
  %24 = load ptr, ptr %23, align 8
  %25 = load ptr, ptr %12, align 8
  %26 = getelementptr inbounds ptr, ptr %25, i64 %indvars.iv.i
  %27 = load ptr, ptr %26, align 8
  %28 = tail call noundef zeroext i1 @_ZN4pkpy2VM5py_eqEPNS_8PyObjectES2_(ptr noundef nonnull align 8 dereferenceable(264913) %0, ptr noundef %24, ptr noundef %27)
  br i1 %28, label %18, label %"_ZZN4pkpy15__init_builtinsEPNS_2VMEENK5$_144clES1_PNS_8PyObjectES4_.exit"

"_ZZN4pkpy15__init_builtinsEPNS_2VMEENK5$_144clES1_PNS_8PyObjectES4_.exit": ; preds = %18, %.lr.ph.i, %3, %_ZN4pkpy7is_typeEPNS_8PyObjectENS_4TypeE.exit.i, %11, %.preheader.i
  %.sink.i = phi i64 [ 264544, %3 ], [ 264544, %_ZN4pkpy7is_typeEPNS_8PyObjectENS_4TypeE.exit.i ], [ 264536, %11 ], [ 264528, %.preheader.i ], [ 264528, %18 ], [ 264536, %.lr.ph.i ]
  %29 = getelementptr inbounds i8, ptr %0, i64 %.sink.i
  %.019.i = load ptr, ptr %29, align 8
  ret ptr %.019.i
}